target datalayout = "e-m:e-p270:32:32-p271:32:32-p272:64:64-i64:64-i128:128-f80:128-n8:16:32:64-S128"
target triple = "x86_64-pc-linux-gnu"

%struct.SANMVideoContext = type { ptr, %struct.GetByteContext, i32, i32, i32, i32, [256 x i32], [768 x i16], i64, i32, i32, i32, i32, i32, ptr, ptr, ptr, ptr, ptr, ptr, i32, i32, i32, i32, i32, ptr, i32, i32, i64, i64, [256 x i16], [4 x i16], [256 x [16 x i8]], [256 x [64 x i8]], [65536 x i8], [256 x i8], [2 x [256 x [16 x i8]]], i16 }
%struct.GetByteContext = type { ptr, ptr, ptr }

; Function Attrs: alwaysinline nounwind uwtable
define internal i32 @bytestream_get_byte(ptr noundef %0) #4 {
  %2 = alloca ptr, align 8
  store ptr %0, ptr %2, align 8, !tbaa !119
  %3 = load ptr, ptr %2, align 8, !tbaa !119
  %4 = load ptr, ptr %3, align 8, !tbaa !63
  %5 = getelementptr inbounds i8, ptr %4, i64 1
  store ptr %5, ptr %3, align 8, !tbaa !63
  %6 = load ptr, ptr %2, align 8, !tbaa !119
  %7 = load ptr, ptr %6, align 8, !tbaa !63
  %8 = getelementptr inbounds i8, ptr %7, i64 -1
  %9 = getelementptr inbounds i8, ptr %8, i64 0
  %10 = load i8, ptr %9, align 1, !tbaa !42
  %11 = zext i8 %10 to i32
  ret i32 %11
}

; Function Attrs: alwaysinline nounwind uwtable
define internal i32 @bytestream2_get_byteu(ptr noundef %0) #4 {
  %2 = alloca ptr, align 8
  store ptr %0, ptr %2, align 8, !tbaa !96
  %3 = load ptr, ptr %2, align 8, !tbaa !96
  %4 = getelementptr inbounds nuw %struct.GetByteContext, ptr %3, i32 0, i32 0
  %5 = call i32 @bytestream_get_byte(ptr noundef %4)
  ret i32 %5
}

; Function Attrs: alwaysinline nounwind uwtable
define internal i32 @bytestream2_get_bufferu(ptr noundef %0, ptr noundef %1, i32 noundef %2) #4 {
  %4 = alloca ptr, align 8
  %5 = alloca ptr, align 8
  %6 = alloca i32, align 4
  store ptr %0, ptr %4, align 8, !tbaa !96
  store ptr %1, ptr %5, align 8, !tbaa !63
  store i32 %2, ptr %6, align 4, !tbaa !44
  %7 = load ptr, ptr %5, align 8, !tbaa !63
  %8 = load ptr, ptr %4, align 8, !tbaa !96
  %9 = getelementptr inbounds nuw %struct.GetByteContext, ptr %8, i32 0, i32 0
  %10 = load ptr, ptr %9, align 8, !tbaa !98
  %11 = load i32, ptr %6, align 4, !tbaa !44
  %12 = zext i32 %11 to i64
  call void @llvm.memcpy.p0.p0.i64(ptr align 1 %7, ptr align 1 %10, i64 %12, i1 false)
  %13 = load i32, ptr %6, align 4, !tbaa !44
  %14 = load ptr, ptr %4, align 8, !tbaa !96
  %15 = getelementptr inbounds nuw %struct.GetByteContext, ptr %14, i32 0, i32 0
  %16 = load ptr, ptr %15, align 8, !tbaa !98
  %17 = zext i32 %13 to i64
  %18 = getelementptr inbounds nuw i8, ptr %16, i64 %17
  store ptr %18, ptr %15, align 8, !tbaa !98
  %19 = load i32, ptr %6, align 4, !tbaa !44
  ret i32 %19
}

; Function Attrs: alwaysinline nounwind uwtable
define internal i32 @bytestream2_get_bytes_left(ptr noundef %0) #4 {
  %2 = alloca ptr, align 8
  store ptr %0, ptr %2, align 8, !tbaa !96
  %3 = load ptr, ptr %2, align 8, !tbaa !96
  %4 = getelementptr inbounds nuw %struct.GetByteContext, ptr %3, i32 0, i32 1
  %5 = load ptr, ptr %4, align 8, !tbaa !100
  %6 = load ptr, ptr %2, align 8, !tbaa !96
  %7 = getelementptr inbounds nuw %struct.GetByteContext, ptr %6, i32 0, i32 0
  %8 = load ptr, ptr %7, align 8, !tbaa !98
  %9 = ptrtoint ptr %5 to i64
  %10 = ptrtoint ptr %8 to i64
  %11 = sub i64 %9, %10
  %12 = trunc i64 %11 to i32
  ret i32 %12
}

; Function Attrs: alwaysinline nounwind uwtable
define internal i32 @bytestream2_get_byte(ptr noundef %0) #4 {
  %2 = alloca i32, align 4
  %3 = alloca ptr, align 8
  store ptr %0, ptr %3, align 8, !tbaa !96
  %4 = load ptr, ptr %3, align 8, !tbaa !96
  %5 = getelementptr inbounds nuw %struct.GetByteContext, ptr %4, i32 0, i32 1
  %6 = load ptr, ptr %5, align 8, !tbaa !100
  %7 = load ptr, ptr %3, align 8, !tbaa !96
  %8 = getelementptr inbounds nuw %struct.GetByteContext, ptr %7, i32 0, i32 0
  %9 = load ptr, ptr %8, align 8, !tbaa !98
  %10 = ptrtoint ptr %6 to i64
  %11 = ptrtoint ptr %9 to i64
  %12 = sub i64 %10, %11
  %13 = icmp slt i64 %12, 1
  br i1 %13, label %14, label %20

14:                                               ; preds = %1
  %15 = load ptr, ptr %3, align 8, !tbaa !96
  %16 = getelementptr inbounds nuw %struct.GetByteContext, ptr %15, i32 0, i32 1
  %17 = load ptr, ptr %16, align 8, !tbaa !100
  %18 = load ptr, ptr %3, align 8, !tbaa !96
  %19 = getelementptr inbounds nuw %struct.GetByteContext, ptr %18, i32 0, i32 0
  store ptr %17, ptr %19, align 8, !tbaa !98
  store i32 0, ptr %2, align 4
  br label %23

20:                                               ; preds = %1
  %21 = load ptr, ptr %3, align 8, !tbaa !96
  %22 = call i32 @bytestream2_get_byteu(ptr noundef %21)
  store i32 %22, ptr %2, align 4
  br label %23

23:                                               ; preds = %20, %14
  %24 = load i32, ptr %2, align 4
  ret i32 %24
}

; Function Attrs: nounwind uwtable
define internal i32 @rle_decode(ptr noundef %0, ptr noundef %1, ptr noundef %2, i32 noundef %3) #1 {
  %5 = alloca i32, align 4
  %6 = alloca ptr, align 8
  %7 = alloca ptr, align 8
  %8 = alloca ptr, align 8
  %9 = alloca i32, align 4
  %10 = alloca i32, align 4
  %11 = alloca i32, align 4
  %12 = alloca i32, align 4
  %13 = alloca i32, align 4
  %14 = alloca i32, align 4
  store ptr %0, ptr %6, align 8, !tbaa !29
  store ptr %1, ptr %7, align 8, !tbaa !96
  store ptr %2, ptr %8, align 8, !tbaa !63
  store i32 %3, ptr %9, align 4, !tbaa !44
  call void @llvm.lifetime.start.p0(i64 4, ptr %10) #10
  call void @llvm.lifetime.start.p0(i64 4, ptr %11) #10
  call void @llvm.lifetime.start.p0(i64 4, ptr %12) #10
  call void @llvm.lifetime.start.p0(i64 4, ptr %13) #10
  %15 = load i32, ptr %9, align 4, !tbaa !44
  store i32 %15, ptr %13, align 4, !tbaa !44
  br label %16

16:                                               ; preds = %56, %4
  %17 = load i32, ptr %13, align 4, !tbaa !44
  %18 = icmp sgt i32 %17, 0
  br i1 %18, label %19, label %64

19:                                               ; preds = %16
  %20 = load ptr, ptr %7, align 8, !tbaa !96
  %21 = call i32 @bytestream2_get_byte(ptr noundef %20)
  store i32 %21, ptr %10, align 4, !tbaa !44
  %22 = load i32, ptr %10, align 4, !tbaa !44
  %23 = ashr i32 %22, 1
  %24 = add nsw i32 %23, 1
  store i32 %24, ptr %12, align 4, !tbaa !44
  %25 = load i32, ptr %12, align 4, !tbaa !44
  %26 = load i32, ptr %13, align 4, !tbaa !44
  %27 = icmp sgt i32 %25, %26
  br i1 %27, label %32, label %28

28:                                               ; preds = %19
  %29 = load ptr, ptr %7, align 8, !tbaa !96
  %30 = call i32 @bytestream2_get_bytes_left(ptr noundef %29)
  %31 = icmp sle i32 %30, 0
  br i1 %31, label %32, label %33

32:                                               ; preds = %28, %19
  store i32 -1094995529, ptr %5, align 4
  store i32 1, ptr %14, align 4
  br label %65

33:                                               ; preds = %28
  %34 = load i32, ptr %10, align 4, !tbaa !44
  %35 = and i32 %34, 1
  %36 = icmp ne i32 %35, 0
  br i1 %36, label %37, label %45

37:                                               ; preds = %33
  %38 = load ptr, ptr %7, align 8, !tbaa !96
  %39 = call i32 @bytestream2_get_byte(ptr noundef %38)
  store i32 %39, ptr %11, align 4, !tbaa !44
  %40 = load ptr, ptr %8, align 8, !tbaa !63
  %41 = load i32, ptr %11, align 4, !tbaa !44
  %42 = trunc i32 %41 to i8
  %43 = load i32, ptr %12, align 4, !tbaa !44
  %44 = sext i32 %43 to i64
  call void @llvm.memset.p0.i64(ptr align 1 %40, i8 %42, i64 %44, i1 false)
  br label %56

45:                                               ; preds = %33
  %46 = load ptr, ptr %7, align 8, !tbaa !96
  %47 = call i32 @bytestream2_get_bytes_left(ptr noundef %46)
  %48 = load i32, ptr %12, align 4, !tbaa !44
  %49 = icmp slt i32 %47, %48
  br i1 %49, label %50, label %51

50:                                               ; preds = %45
  store i32 -1094995529, ptr %5, align 4
  store i32 1, ptr %14, align 4
  br label %65

51:                                               ; preds = %45
  %52 = load ptr, ptr %7, align 8, !tbaa !96
  %53 = load ptr, ptr %8, align 8, !tbaa !63
  %54 = load i32, ptr %12, align 4, !tbaa !44
  %55 = call i32 @bytestream2_get_bufferu(ptr noundef %52, ptr noundef %53, i32 noundef %54)
  br label %56

56:                                               ; preds = %51, %37
  %57 = load i32, ptr %12, align 4, !tbaa !44
  %58 = load ptr, ptr %8, align 8, !tbaa !63
  %59 = sext i32 %57 to i64
  %60 = getelementptr inbounds i8, ptr %58, i64 %59
  store ptr %60, ptr %8, align 8, !tbaa !63
  %61 = load i32, ptr %12, align 4, !tbaa !44
  %62 = load i32, ptr %13, align 4, !tbaa !44
  %63 = sub nsw i32 %62, %61
  store i32 %63, ptr %13, align 4, !tbaa !44
  br label %16, !llvm.loop !172

64:                                               ; preds = %16
  store i32 0, ptr %5, align 4
  store i32 1, ptr %14, align 4
  br label %65

65:                                               ; preds = %64, %50, %32
  call void @llvm.lifetime.end.p0(i64 4, ptr %13) #10
  call void @llvm.lifetime.end.p0(i64 4, ptr %12) #10
  call void @llvm.lifetime.end.p0(i64 4, ptr %11) #10
  call void @llvm.lifetime.end.p0(i64 4, ptr %10) #10
  %66 = load i32, ptr %5, align 4
  ret i32 %66
}

; Function Attrs: nounwind uwtable
define internal i32 @decode_5(ptr noundef %0) #1 {
  %2 = alloca i32, align 4
  %3 = alloca ptr, align 8
  %4 = alloca ptr, align 8
  %5 = alloca i32, align 4
  store ptr %0, ptr %3, align 8, !tbaa !29
  call void @llvm.lifetime.start.p0(i64 8, ptr %4) #10
  %6 = load ptr, ptr %3, align 8, !tbaa !29
  %7 = getelementptr inbounds nuw %struct.SANMVideoContext, ptr %6, i32 0, i32 16
  %8 = load ptr, ptr %7, align 8, !tbaa !85
  store ptr %8, ptr %4, align 8, !tbaa !63
  %9 = load ptr, ptr %3, align 8, !tbaa !29
  %10 = load ptr, ptr %3, align 8, !tbaa !29
  %11 = getelementptr inbounds nuw %struct.SANMVideoContext, ptr %10, i32 0, i32 1
  %12 = load ptr, ptr %4, align 8, !tbaa !63
  %13 = load ptr, ptr %3, align 8, !tbaa !29
  %14 = getelementptr inbounds nuw %struct.SANMVideoContext, ptr %13, i32 0, i32 29
  %15 = load i64, ptr %14, align 8, !tbaa !61
  %16 = trunc i64 %15 to i32
  %17 = call i32 @rle_decode(ptr noundef %9, ptr noundef %11, ptr noundef %12, i32 noundef %16)
  %18 = icmp ne i32 %17, 0
  br i1 %18, label %19, label %20

19:                                               ; preds = %1
  store i32 -1094995529, ptr %2, align 4
  store i32 1, ptr %5, align 4
  br label %21

20:                                               ; preds = %1
  store i32 0, ptr %2, align 4
  store i32 1, ptr %5, align 4
  br label %21

21:                                               ; preds = %20, %19
  call void @llvm.lifetime.end.p0(i64 8, ptr %4) #10
  %22 = load i32, ptr %2, align 4
  ret i32 %22
}