; Function Attrs: nofree norecurse nosync nounwind memory(readwrite, inaccessiblemem: none) uwtable
define internal range(i32 -1094995529, 1) i32 @decode_5(ptr noundef captures(none) %0) #10 {
  %2 = getelementptr inbounds nuw i8, ptr %0, i64 8
  %3 = getelementptr inbounds nuw i8, ptr %0, i64 2736
  %4 = load i64, ptr %3, align 8, !tbaa !43
  %5 = trunc i64 %4 to i32
  %6 = icmp sgt i32 %5, 0
  br i1 %6, label %.lr.ph.i, label %rle_decode.exit

.lr.ph.i:                                         ; preds = %1
  %7 = getelementptr inbounds nuw i8, ptr %0, i64 2656
  %8 = load ptr, ptr %7, align 8, !tbaa !84
  %9 = getelementptr inbounds nuw i8, ptr %0, i64 16
  br label %10

10:                                               ; preds = %44, %.lr.ph.i
  %.02.i = phi i32 [ %5, %.lr.ph.i ], [ %46, %44 ]
  %.0221.i = phi ptr [ %8, %.lr.ph.i ], [ %45, %44 ]
  %11 = load ptr, ptr %9, align 8, !tbaa !58
  %12 = load ptr, ptr %2, align 8, !tbaa !56
  %13 = ptrtoint ptr %11 to i64
  %14 = ptrtoint ptr %12 to i64
  %15 = sub i64 %13, %14
  %16 = icmp slt i64 %15, 1
  br i1 %16, label %17, label %18

17:                                               ; preds = %10
  store ptr %11, ptr %2, align 8, !tbaa !56
  br label %bytestream2_get_byte.exit27.i

18:                                               ; preds = %10
  %19 = getelementptr inbounds nuw i8, ptr %12, i64 1
  store ptr %19, ptr %2, align 8, !tbaa !60
  %20 = load i8, ptr %12, align 1, !tbaa !46
  %21 = zext i8 %20 to i32
  br label %bytestream2_get_byte.exit27.i

bytestream2_get_byte.exit27.i:                    ; preds = %18, %17
  %22 = phi ptr [ %11, %17 ], [ %19, %18 ]
  %.0.i26.i = phi i32 [ 0, %17 ], [ %21, %18 ]
  %23 = lshr i32 %.0.i26.i, 1
  %24 = add nuw nsw i32 %23, 1
  %.not.i = icmp samesign ult i32 %23, %.02.i
  br i1 %.not.i, label %25, label %rle_decode.exit

25:                                               ; preds = %bytestream2_get_byte.exit27.i
  %26 = ptrtoint ptr %22 to i64
  %27 = sub i64 %13, %26
  %28 = trunc i64 %27 to i32
  %29 = icmp slt i32 %28, 1
  br i1 %29, label %rle_decode.exit, label %30

30:                                               ; preds = %25
  %31 = and i32 %.0.i26.i, 1
  %.not24.i = icmp eq i32 %31, 0
  br i1 %.not24.i, label %39, label %32

32:                                               ; preds = %30
  %33 = icmp slt i64 %27, 1
  br i1 %33, label %34, label %35

34:                                               ; preds = %32
  store ptr %11, ptr %2, align 8, !tbaa !56
  br label %bytestream2_get_byte.exit.i

35:                                               ; preds = %32
  %36 = getelementptr inbounds nuw i8, ptr %22, i64 1
  store ptr %36, ptr %2, align 8, !tbaa !60
  %37 = load i8, ptr %22, align 1, !tbaa !46
  br label %bytestream2_get_byte.exit.i

bytestream2_get_byte.exit.i:                      ; preds = %35, %34
  %.0.i.i = phi i8 [ 0, %34 ], [ %37, %35 ]
  %38 = zext nneg i32 %24 to i64
  tail call void @llvm.memset.p0.i64(ptr noundef nonnull align 1 dereferenceable(1) %.0221.i, i8 %.0.i.i, i64 %38, i1 false)
  br label %44

39:                                               ; preds = %30
  %.not25.i = icmp samesign ult i32 %23, %28
  br i1 %.not25.i, label %40, label %rle_decode.exit

40:                                               ; preds = %39
  %41 = zext nneg i32 %24 to i64
  tail call void @llvm.memcpy.p0.p0.i64(ptr noundef nonnull align 1 dereferenceable(1) %.0221.i, ptr noundef nonnull align 1 dereferenceable(1) %22, i64 %41, i1 false)
  %42 = load ptr, ptr %2, align 8, !tbaa !56
  %43 = getelementptr inbounds nuw i8, ptr %42, i64 %41
  store ptr %43, ptr %2, align 8, !tbaa !56
  br label %44

44:                                               ; preds = %40, %bytestream2_get_byte.exit.i
  %.pre-phi.i = phi i64 [ %41, %40 ], [ %38, %bytestream2_get_byte.exit.i ]
  %45 = getelementptr inbounds nuw i8, ptr %.0221.i, i64 %.pre-phi.i
  %46 = sub nsw i32 %.02.i, %24
  %47 = icmp sgt i32 %46, 0
  br i1 %47, label %10, label %rle_decode.exit, !llvm.loop !134

rle_decode.exit:                                  ; preds = %25, %bytestream2_get_byte.exit27.i, %39, %44, %1
  %48 = phi i32 [ 0, %1 ], [ -1094995529, %25 ], [ -1094995529, %bytestream2_get_byte.exit27.i ], [ -1094995529, %39 ], [ 0, %44 ]
  ret i32 %48
}